; Function Attrs: nounwind uwtable
define hidden ptr @mi_heap_set_default(ptr noundef %0) local_unnamed_addr #0 {
  %2 = icmp ne ptr %0, null
  %3 = icmp ne ptr %0, @_mi_heap_empty
  %or.cond = and i1 %2, %3
  br i1 %or.cond, label %4, label %7

4:                                                ; preds = %1
  %5 = tail call align 8 ptr @llvm.threadlocal.address.p0(ptr align 8 @_mi_heap_default)
  %6 = load ptr, ptr %5, align 8, !tbaa !42
  tail call void @_mi_heap_set_default_direct(ptr noundef nonnull %0) #11
  br label %7

7:                                                ; preds = %1, %4
  %.0 = phi ptr [ %6, %4 ], [ null, %1 ]
  ret ptr %.0
}